#include <math.h>
#include <stdio.h>
#include <stdlib.h>
#include <string.h>

void yid(int *p,int x,int y)
{
    int i,j,temp;
	for(i=0;i<y;i++)
	{
		temp=*(p+x-1);
		for(j=x-1;j>0;j--)
			*(p+j)=*(p+j-1);
		*p=temp;
	}
}
int main()
{
    int *arr,l,a[100],n,m;
    scanf("%d %d",&n,&m);
	for(l=0;l<n;l++)
		scanf("%d",&a[l]);
	arr=a;
	yid(arr,n,m);
	printf("%d",*arr);
    for(arr=(a+1);arr<(a+n);arr++)
		printf(" %d",*arr);
}
