; ModuleID = '52/1598.c'
source_filename = "52/1598.c"
target datalayout = "e-m:e-p270:32:32-p271:32:32-p272:64:64-i64:64-f80:128-n8:16:32:64-S128"
target triple = "x86_64-pc-linux-gnu"

@.str = private unnamed_addr constant [6 x i8] c"%d %d\00", align 1
@.str.1 = private unnamed_addr constant [3 x i8] c"%d\00", align 1
@.str.2 = private unnamed_addr constant [4 x i8] c" %d\00", align 1

; Function Attrs: noinline nounwind uwtable
define dso_local void @yid(i32* %0, i32 %1, i32 %2) #0 {
  %4 = alloca i32*, align 8
  %5 = alloca i32, align 4
  %6 = alloca i32, align 4
  %7 = alloca i32, align 4
  %8 = alloca i32, align 4
  %9 = alloca i32, align 4
  store i32* %0, i32** %4, align 8
  store i32 %1, i32* %5, align 4
  store i32 %2, i32* %6, align 4
  store i32 0, i32* %7, align 4
  br label %10

10:                                               ; preds = %43, %3
  %11 = load i32, i32* %7, align 4
  %12 = load i32, i32* %6, align 4
  %13 = icmp slt i32 %11, %12
  br i1 %13, label %14, label %46

14:                                               ; preds = %10
  %15 = load i32*, i32** %4, align 8
  %16 = load i32, i32* %5, align 4
  %17 = sext i32 %16 to i64
  %18 = getelementptr inbounds i32, i32* %15, i64 %17
  %19 = getelementptr inbounds i32, i32* %18, i64 -1
  %20 = load i32, i32* %19, align 4
  store i32 %20, i32* %9, align 4
  %21 = load i32, i32* %5, align 4
  %22 = sub nsw i32 %21, 1
  store i32 %22, i32* %8, align 4
  br label %23

23:                                               ; preds = %37, %14
  %24 = load i32, i32* %8, align 4
  %25 = icmp sgt i32 %24, 0
  br i1 %25, label %26, label %40

26:                                               ; preds = %23
  %27 = load i32*, i32** %4, align 8
  %28 = load i32, i32* %8, align 4
  %29 = sext i32 %28 to i64
  %30 = getelementptr inbounds i32, i32* %27, i64 %29
  %31 = getelementptr inbounds i32, i32* %30, i64 -1
  %32 = load i32, i32* %31, align 4
  %33 = load i32*, i32** %4, align 8
  %34 = load i32, i32* %8, align 4
  %35 = sext i32 %34 to i64
  %36 = getelementptr inbounds i32, i32* %33, i64 %35
  store i32 %32, i32* %36, align 4
  br label %37

37:                                               ; preds = %26
  %38 = load i32, i32* %8, align 4
  %39 = add nsw i32 %38, -1
  store i32 %39, i32* %8, align 4
  br label %23

40:                                               ; preds = %23
  %41 = load i32, i32* %9, align 4
  %42 = load i32*, i32** %4, align 8
  store i32 %41, i32* %42, align 4
  br label %43

43:                                               ; preds = %40
  %44 = load i32, i32* %7, align 4
  %45 = add nsw i32 %44, 1
  store i32 %45, i32* %7, align 4
  br label %10

46:                                               ; preds = %10
  ret void
}

; Function Attrs: noinline nounwind uwtable
define dso_local i32 @main() #0 {
  %1 = alloca i32, align 4
  %2 = alloca i32*, align 8
  %3 = alloca i32, align 4
  %4 = alloca [100 x i32], align 16
  %5 = alloca i32, align 4
  %6 = alloca i32, align 4
  store i32 0, i32* %1, align 4
  %7 = call i32 (i8*, ...) @__isoc99_scanf(i8* getelementptr inbounds ([6 x i8], [6 x i8]* @.str, i64 0, i64 0), i32* %5, i32* %6)
  store i32 0, i32* %3, align 4
  br label %8

8:                                                ; preds = %17, %0
  %9 = load i32, i32* %3, align 4
  %10 = load i32, i32* %5, align 4
  %11 = icmp slt i32 %9, %10
  br i1 %11, label %12, label %20

12:                                               ; preds = %8
  %13 = load i32, i32* %3, align 4
  %14 = sext i32 %13 to i64
  %15 = getelementptr inbounds [100 x i32], [100 x i32]* %4, i64 0, i64 %14
  %16 = call i32 (i8*, ...) @__isoc99_scanf(i8* getelementptr inbounds ([3 x i8], [3 x i8]* @.str.1, i64 0, i64 0), i32* %15)
  br label %17

17:                                               ; preds = %12
  %18 = load i32, i32* %3, align 4
  %19 = add nsw i32 %18, 1
  store i32 %19, i32* %3, align 4
  br label %8

20:                                               ; preds = %8
  %21 = getelementptr inbounds [100 x i32], [100 x i32]* %4, i64 0, i64 0
  store i32* %21, i32** %2, align 8
  %22 = load i32*, i32** %2, align 8
  %23 = load i32, i32* %5, align 4
  %24 = load i32, i32* %6, align 4
  call void @yid(i32* %22, i32 %23, i32 %24)
  %25 = load i32*, i32** %2, align 8
  %26 = load i32, i32* %25, align 4
  %27 = call i32 (i8*, ...) @printf(i8* getelementptr inbounds ([3 x i8], [3 x i8]* @.str.1, i64 0, i64 0), i32 %26)
  %28 = getelementptr inbounds [100 x i32], [100 x i32]* %4, i64 0, i64 0
  %29 = getelementptr inbounds i32, i32* %28, i64 1
  store i32* %29, i32** %2, align 8
  br label %30

30:                                               ; preds = %41, %20
  %31 = load i32*, i32** %2, align 8
  %32 = getelementptr inbounds [100 x i32], [100 x i32]* %4, i64 0, i64 0
  %33 = load i32, i32* %5, align 4
  %34 = sext i32 %33 to i64
  %35 = getelementptr inbounds i32, i32* %32, i64 %34
  %36 = icmp ult i32* %31, %35
  br i1 %36, label %37, label %44

37:                                               ; preds = %30
  %38 = load i32*, i32** %2, align 8
  %39 = load i32, i32* %38, align 4
  %40 = call i32 (i8*, ...) @printf(i8* getelementptr inbounds ([4 x i8], [4 x i8]* @.str.2, i64 0, i64 0), i32 %39)
  br label %41

41:                                               ; preds = %37
  %42 = load i32*, i32** %2, align 8
  %43 = getelementptr inbounds i32, i32* %42, i32 1
  store i32* %43, i32** %2, align 8
  br label %30

44:                                               ; preds = %30
  %45 = load i32, i32* %1, align 4
  ret i32 %45
}

declare dso_local i32 @__isoc99_scanf(i8*, ...) #1

declare dso_local i32 @printf(i8*, ...) #1


!llvm.module.flags = !{!0}
!llvm.ident = !{!1}

!0 = !{i32 1, !"wchar_size", i32 4}
!1 = !{!"clang version 10.0.0-4ubuntu1 "}
